Certificate:
    Data:
        Version: 3 (0x2)
        Serial Number: 286 (0x11e)
    Signature Algorithm: sha256WithRSAEncryption
        Issuer: C=KR, ST=Seoul, L=Seoul, O=SSU, OU=SW, CN=ca/emailAddress=ca@ssu.ac.kr
        Validity
            Not Before: Oct  1 12:20:12 2018 GMT
            Not After : Oct  1 12:20:12 2019 GMT
        Subject: C=KR, ST=Seoul, O=SSU, OU=SW, CN=server/emailAddress=server@ssu.ac.kr
        Subject Public Key Info:
            Public Key Algorithm: rsaEncryption
                Public-Key: (1024 bit)
                Modulus:
                    00:b5:75:32:a9:88:60:86:15:af:48:c5:cc:90:4d:
                    eb:9a:59:0d:a6:55:c9:fb:eb:14:f7:2f:24:76:83:
                    06:66:11:94:51:ff:2e:e5:08:38:58:3e:6e:de:55:
                    12:cd:f7:bc:f9:87:ea:88:97:0e:ba:a7:14:d0:08:
                    97:e4:99:95:8c:36:79:aa:55:f2:4a:ff:fd:dd:c8:
                    e5:0c:1a:b7:c0:79:7b:45:c5:c1:3a:03:a9:11:c9:
                    6c:c8:c4:45:31:b6:42:50:37:8a:87:79:6e:33:c4:
                    91:73:92:06:f8:13:74:ee:99:27:7d:fb:7d:65:a8:
                    3f:bb:47:c0:51:51:14:75:f5
                Exponent: 65537 (0x10001)
        X509v3 extensions:
            X509v3 Basic Constraints: 
                CA:FALSE
            Netscape Comment: 
                OpenSSL Generated Certificate
            X509v3 Subject Key Identifier: 
                64:47:AE:C7:D6:79:EB:45:6E:E8:6E:5F:B7:68:86:C3:DF:0C:6F:CC
            X509v3 Authority Key Identifier: 
                keyid:56:E5:ED:91:58:4E:FF:09:D8:48:D4:F4:6B:3C:B7:1A:97:B7:EC:EC

    Signature Algorithm: sha256WithRSAEncryption
         41:a5:6b:3d:6f:4f:a0:7f:c3:1d:b0:84:91:18:8c:73:d1:4a:
         ba:18:c1:a6:63:39:7c:aa:ee:b4:98:bc:5a:0b:cc:4b:98:19:
         57:77:bd:c7:3a:b9:a7:bf:5a:8a:7c:97:05:aa:92:af:bc:85:
         f0:a0:4f:a9:11:e1:a7:97:41:84:d7:96:c7:bb:2a:9a:50:51:
         62:87:36:39:01:0c:0a:c8:dc:c4:55:e5:4a:82:4d:ce:7a:78:
         2c:72:aa:20:55:28:d2:48:cf:cd:26:e9:6c:18:ad:b7:e9:fb:
         f6:f7:15:38:de:cc:f4:bb:36:69:c1:35:06:d4:73:90:e5:e0:
         88:6d
-----BEGIN CERTIFICATE-----
MIICzjCCAjegAwIBAgICAR4wDQYJKoZIhvcNAQELBQAwcjELMAkGA1UEBhMCS1Ix
DjAMBgNVBAgMBVNlb3VsMQ4wDAYDVQQHDAVTZW91bDEMMAoGA1UECgwDU1NVMQsw
CQYDVQQLDAJTVzELMAkGA1UEAwwCY2ExGzAZBgkqhkiG9w0BCQEWDGNhQHNzdS5h
Yy5rcjAeFw0xODEwMDExMjIwMTJaFw0xOTEwMDExMjIwMTJaMGoxCzAJBgNVBAYT
AktSMQ4wDAYDVQQIDAVTZW91bDEMMAoGA1UECgwDU1NVMQswCQYDVQQLDAJTVzEP
MA0GA1UEAwwGc2VydmVyMR8wHQYJKoZIhvcNAQkBFhBzZXJ2ZXJAc3N1LmFjLmty
MIGfMA0GCSqGSIb3DQEBAQUAA4GNADCBiQKBgQC1dTKpiGCGFa9IxcyQTeuaWQ2m
Vcn76xT3LyR2gwZmEZRR/y7lCDhYPm7eVRLN97z5h+qIlw66pxTQCJfkmZWMNnmq
VfJK//3dyOUMGrfAeXtFxcE6A6kRyWzIxEUxtkJQN4qHeW4zxJFzkgb4E3TumSd9
+31lqD+7R8BRURR19QIDAQABo3sweTAJBgNVHRMEAjAAMCwGCWCGSAGG+EIBDQQf
Fh1PcGVuU1NMIEdlbmVyYXRlZCBDZXJ0aWZpY2F0ZTAdBgNVHQ4EFgQUZEeux9Z5
60Vu6G5ft2iGw98Mb8wwHwYDVR0jBBgwFoAUVuXtkVhO/wnYSNT0azy3Gpe37Oww
DQYJKoZIhvcNAQELBQADgYEAQaVrPW9PoH/DHbCEkRiMc9FKuhjBpmM5fKrutJi8
WgvMS5gZV3e9xzq5p79ainyXBaqSr7yF8KBPqRHhp5dBhNeWx7sqmlBRYoc2OQEM
CsjcxFXlSoJNznp4LHKqIFUo0kjPzSbpbBitt+n79vcVON7M9Ls2acE1BtRzkOXg
iG0=
-----END CERTIFICATE-----
